target datalayout = "e-m:e-p270:32:32-p271:32:32-p272:64:64-i64:64-i128:128-f80:128-n8:16:32:64-S128"
target triple = "x86_64-unknown-linux-gnu"

%struct.rpc_authops = type { ptr, i32, ptr, ptr, ptr, ptr, ptr, ptr, ptr, ptr, ptr, ptr }
%struct.rpc_auth = type { i32, i32, i32, i32, i64, ptr, i32, %struct.refcount_struct, ptr }
%struct.refcount_struct = type { %struct.atomic_t }
%struct.atomic_t = type { i32 }
%struct.rpc_cred = type { %struct.hlist_node, %struct.list_head, %struct.callback_head, ptr, ptr, i64, i64, %struct.refcount_struct, ptr }
%struct.hlist_node = type { ptr, ptr }
%struct.list_head = type { ptr, ptr }
%struct.callback_head = type { ptr, ptr }
%struct.rpc_credops = type { ptr, ptr, ptr, ptr, ptr, ptr, ptr, ptr, ptr, ptr, ptr, ptr }

@.str = private unnamed_addr constant [5 x i8] c"NULL\00", align 1
@authnull_ops = dso_local constant %struct.rpc_authops { ptr null, i32 0, ptr @.str, ptr @nul_create, ptr @nul_destroy, ptr null, ptr @nul_lookup_cred, ptr null, ptr null, ptr null, ptr null, ptr null }, align 8
@null_auth = internal global %struct.rpc_auth { i32 4, i32 2, i32 2, i32 2, i64 0, ptr @authnull_ops, i32 0, %struct.refcount_struct { %struct.atomic_t { i32 1 } }, ptr null }, align 8
@null_cred = internal global %struct.rpc_cred { %struct.hlist_node zeroinitializer, %struct.list_head { ptr getelementptr (i8, ptr @null_cred, i64 16), ptr getelementptr (i8, ptr @null_cred, i64 16) }, %struct.callback_head zeroinitializer, ptr @null_auth, ptr @null_credops, i64 0, i64 2, %struct.refcount_struct { %struct.atomic_t { i32 2 } }, ptr null }, align 8
@null_credops = internal constant %struct.rpc_credops { ptr @.str.1, ptr null, ptr @nul_destroy_cred, ptr @nul_match, ptr @nul_marshal, ptr @nul_refresh, ptr @nul_validate, ptr @rpcauth_wrap_req_encode, ptr @rpcauth_unwrap_resp_decode, ptr null, ptr null, ptr null }, align 8
@.str.1 = private unnamed_addr constant [10 x i8] c"AUTH_NULL\00", align 1

; Function Attrs: fn_ret_thunk_extern nounwind null_pointer_is_valid
define internal noundef ptr @nul_create(ptr nocapture readnone %0, ptr nocapture readnone %1) #0 align 16 {
  %3 = tail call i32 asm sideeffect ".pushsection .smp_locks,\22a\22\0A.balign 4\0A.long 671f - .\0A.popsection\0A671:\0A\09lock; xaddl $0, $1\0A", "=r,=*m,0,*m,~{memory},~{cc},~{dirflag},~{fpsr},~{flags}"(ptr nonnull elementtype(i32) getelementptr inbounds (%struct.rpc_auth, ptr @null_auth, i64 0, i32 7), i32 1, ptr nonnull elementtype(i32) getelementptr inbounds (%struct.rpc_auth, ptr @null_auth, i64 0, i32 7)) #5, !srcloc !5
  %4 = icmp eq i32 %3, 0
  br i1 %4, label %9, label %5, !prof !6

5:                                                ; preds = %2
  %6 = add i32 %3, 1
  %7 = or i32 %6, %3
  %8 = icmp sgt i32 %7, -1
  br i1 %8, label %11, label %9, !prof !7

9:                                                ; preds = %5, %2
  %10 = phi i32 [ 2, %2 ], [ 1, %5 ]
  tail call void @refcount_warn_saturate(ptr noundef nonnull getelementptr inbounds (%struct.rpc_auth, ptr @null_auth, i64 0, i32 7), i32 noundef %10) #5
  br label %11

11:                                               ; preds = %9, %5
  ret ptr @null_auth
}

; Function Attrs: fn_ret_thunk_extern mustprogress nofree norecurse nosync nounwind null_pointer_is_valid willreturn memory(none)
define internal void @nul_destroy(ptr nocapture readnone %0) #1 align 16 {
  ret void
}

; Function Attrs: fn_ret_thunk_extern nounwind null_pointer_is_valid
define internal ptr @nul_lookup_cred(ptr nocapture readnone %0, ptr nocapture readnone %1, i32 %2) #0 align 16 {
  %4 = load volatile i32, ptr getelementptr inbounds (%struct.rpc_cred, ptr @null_cred, i64 0, i32 7), align 8
  %5 = icmp eq i32 %4, 0
  br i1 %5, label %19, label %6

6:                                                ; preds = %15, %3
  %7 = phi i32 [ %16, %15 ], [ %4, %3 ]
  %8 = add i32 %7, 1
  %9 = tail call { i8, i32 } asm sideeffect ".pushsection .smp_locks,\22a\22\0A.balign 4\0A.long 671f - .\0A.popsection\0A671:\0A\09lock; cmpxchgl $3, $1\0A\09/* output condition code z*/\0A", "={@ccz},=*m,={ax},r,*m,2,~{memory},~{dirflag},~{fpsr},~{flags}"(ptr nonnull elementtype(i32) getelementptr inbounds (%struct.rpc_cred, ptr @null_cred, i64 0, i32 7), i32 %8, ptr nonnull elementtype(i32) getelementptr inbounds (%struct.rpc_cred, ptr @null_cred, i64 0, i32 7), i32 %7) #5, !srcloc !8
  %10 = extractvalue { i8, i32 } %9, 0
  %11 = icmp ult i8 %10, 2
  tail call void @llvm.assume(i1 %11)
  %12 = icmp ne i8 %10, 0
  br i1 %12, label %15, label %13, !prof !7

13:                                               ; preds = %6
  %14 = extractvalue { i8, i32 } %9, 1
  br label %15

15:                                               ; preds = %13, %6
  %16 = phi i32 [ %7, %6 ], [ %14, %13 ]
  %17 = icmp eq i32 %16, 0
  %18 = select i1 %12, i1 true, i1 %17
  br i1 %18, label %19, label %6, !llvm.loop !9

19:                                               ; preds = %15, %3
  %20 = phi i32 [ %4, %3 ], [ %16, %15 ]
  %21 = add i32 %20, 1
  %22 = or i32 %21, %20
  %23 = icmp sgt i32 %22, -1
  br i1 %23, label %25, label %24, !prof !7

24:                                               ; preds = %19
  tail call void @refcount_warn_saturate(ptr noundef nonnull getelementptr inbounds (%struct.rpc_cred, ptr @null_cred, i64 0, i32 7), i32 noundef 0) #5
  br label %25

25:                                               ; preds = %24, %19
  %26 = icmp eq i32 %20, 0
  %27 = select i1 %26, ptr null, ptr @null_cred
  ret ptr %27
}

; Function Attrs: null_pointer_is_valid
declare dso_local void @refcount_warn_saturate(ptr noundef, i32 noundef) local_unnamed_addr #2

; Function Attrs: nocallback nofree nosync nounwind willreturn memory(inaccessiblemem: write)
declare void @llvm.assume(i1 noundef) #3

; Function Attrs: fn_ret_thunk_extern mustprogress nofree norecurse nosync nounwind null_pointer_is_valid willreturn memory(none)
define internal void @nul_destroy_cred(ptr nocapture readnone %0) #1 align 16 {
  ret void
}

; Function Attrs: fn_ret_thunk_extern mustprogress nofree norecurse nosync nounwind null_pointer_is_valid willreturn memory(none)
define internal noundef i32 @nul_match(ptr nocapture readnone %0, ptr nocapture readnone %1, i32 %2) #1 align 16 {
  ret i32 1
}

; Function Attrs: fn_ret_thunk_extern nounwind null_pointer_is_valid
define internal noundef i32 @nul_marshal(ptr nocapture readnone %0, ptr noundef %1) #0 align 16 {
  %3 = tail call ptr @xdr_reserve_space(ptr noundef %1, i64 noundef 16) #5
  %4 = icmp eq ptr %3, null
  br i1 %4, label %6, label %5

5:                                                ; preds = %2
  tail call void @llvm.memset.p0.i64(ptr noundef nonnull align 4 dereferenceable(16) %3, i8 0, i64 16, i1 false)
  br label %6

6:                                                ; preds = %5, %2
  %7 = phi i32 [ 0, %5 ], [ -90, %2 ]
  ret i32 %7
}

; Function Attrs: fn_ret_thunk_extern nounwind null_pointer_is_valid
define internal noundef i32 @nul_refresh(ptr nocapture noundef readonly %0) #0 align 16 {
  %2 = getelementptr inbounds i8, ptr %0, i64 184
  %3 = load ptr, ptr %2, align 8
  %4 = getelementptr inbounds i8, ptr %3, i64 160
  %5 = load ptr, ptr %4, align 8
  %6 = getelementptr inbounds i8, ptr %5, i64 72
  tail call void asm sideeffect ".pushsection .smp_locks,\22a\22\0A.balign 4\0A.long 671f - .\0A.popsection\0A671:\0A\09lock; orb ${1:b},$0", "=*m,iq,*m,~{memory},~{dirflag},~{fpsr},~{flags}"(ptr elementtype(i8) %6, i32 2, ptr elementtype(i8) %6) #5, !srcloc !12
  ret i32 0
}

; Function Attrs: fn_ret_thunk_extern nounwind null_pointer_is_valid
define internal i32 @nul_validate(ptr nocapture readnone %0, ptr noundef %1) #0 align 16 {
  %3 = tail call ptr @xdr_inline_decode(ptr noundef %1, i64 noundef 8) #5
  %4 = icmp eq ptr %3, null
  br i1 %4, label %13, label %5

5:                                                ; preds = %2
  %6 = load i32, ptr %3, align 4
  %7 = icmp eq i32 %6, 0
  br i1 %7, label %8, label %13

8:                                                ; preds = %5
  %9 = getelementptr i8, ptr %3, i64 4
  %10 = load i32, ptr %9, align 4
  %11 = icmp eq i32 %10, 0
  %12 = select i1 %11, i32 0, i32 -5
  br label %13

13:                                               ; preds = %8, %5, %2
  %14 = phi i32 [ -5, %2 ], [ -5, %5 ], [ %12, %8 ]
  ret i32 %14
}

; Function Attrs: null_pointer_is_valid
declare dso_local i32 @rpcauth_wrap_req_encode(ptr noundef, ptr noundef) #2

; Function Attrs: null_pointer_is_valid
declare dso_local i32 @rpcauth_unwrap_resp_decode(ptr noundef, ptr noundef) #2

; Function Attrs: null_pointer_is_valid
declare dso_local ptr @xdr_reserve_space(ptr noundef, i64 noundef) local_unnamed_addr #2

; Function Attrs: null_pointer_is_valid
declare dso_local ptr @xdr_inline_decode(ptr noundef, i64 noundef) local_unnamed_addr #2

; Function Attrs: nocallback nofree nounwind willreturn memory(argmem: write)
declare void @llvm.memset.p0.i64(ptr nocapture writeonly, i8, i64, i1 immarg) #4


!llvm.module.flags = !{!0, !1, !2, !3, !4}

!0 = !{i32 1, !"wchar_size", i32 2}
!1 = !{i32 8, !"cf-protection-branch", i32 1}
!2 = !{i32 4, !"function_return_thunk_extern", i32 1}
!3 = !{i32 4, !"indirect_branch_cs_prefix", i32 1}
!4 = !{i32 4, !"SkipRaxSetup", i32 1}
!5 = !{i64 2148819922, i64 2148819961, i64 2148819982, i64 2148820019, i64 2148820042, i64 2148820051}
!6 = !{!"branch_weights", i32 1, i32 2000}
!7 = !{!"branch_weights", i32 2000, i32 1}
!8 = !{i64 2148831875, i64 2148831914, i64 2148831935, i64 2148831972, i64 2148831995, i64 2148832004, i64 2148832302}
!9 = distinct !{!9, !10, !11}
!10 = !{!"llvm.loop.mustprogress"}
!11 = !{!"llvm.loop.unroll.disable"}
!12 = !{i64 2148458176, i64 2148458215, i64 2148458236, i64 2148458273, i64 2148458296, i64 2148458166}
